target datalayout = "e-m:e-p270:32:32-p271:32:32-p272:64:64-i64:64-i128:128-f80:128-n8:16:32:64-S128"
target triple = "x86_64-pc-linux-gnu"

%struct.fdt_header = type { i32, i32, i32, i32, i32, i32, i32, i32, i32, i32 }

; Function Attrs: inlinehint nounwind uwtable
define internal i32 @fdt32_ld(ptr noundef %0) #2 {
  %2 = alloca ptr, align 8
  %3 = alloca ptr, align 8
  store ptr %0, ptr %2, align 8
  call void @llvm.lifetime.start.p0(i64 8, ptr %3) #5
  %4 = load ptr, ptr %2, align 8
  store ptr %4, ptr %3, align 8
  %5 = load ptr, ptr %3, align 8
  %6 = getelementptr inbounds i8, ptr %5, i64 0
  %7 = load i8, ptr %6, align 1
  %8 = zext i8 %7 to i32
  %9 = shl i32 %8, 24
  %10 = load ptr, ptr %3, align 8
  %11 = getelementptr inbounds i8, ptr %10, i64 1
  %12 = load i8, ptr %11, align 1
  %13 = zext i8 %12 to i32
  %14 = shl i32 %13, 16
  %15 = or i32 %9, %14
  %16 = load ptr, ptr %3, align 8
  %17 = getelementptr inbounds i8, ptr %16, i64 2
  %18 = load i8, ptr %17, align 1
  %19 = zext i8 %18 to i32
  %20 = shl i32 %19, 8
  %21 = or i32 %15, %20
  %22 = load ptr, ptr %3, align 8
  %23 = getelementptr inbounds i8, ptr %22, i64 3
  %24 = load i8, ptr %23, align 1
  %25 = zext i8 %24 to i32
  %26 = or i32 %21, %25
  call void @llvm.lifetime.end.p0(i64 8, ptr %3) #5
  ret i32 %26
}

; Function Attrs: inlinehint nounwind uwtable
define internal zeroext i1 @can_assume_(i32 noundef %0) #2 {
  %2 = alloca i32, align 4
  store i32 %0, ptr %2, align 4
  %3 = load i32, ptr %2, align 4
  %4 = and i32 0, %3
  %5 = icmp ne i32 %4, 0
  ret i1 %5
}

; Function Attrs: nounwind uwtable
define dso_local i32 @fdt_move(ptr noundef %0, ptr noundef %1, i32 noundef %2) #0 {
  %4 = alloca i32, align 4
  %5 = alloca ptr, align 8
  %6 = alloca ptr, align 8
  %7 = alloca i32, align 4
  %8 = alloca i32, align 4
  %9 = alloca i32, align 4
  store ptr %0, ptr %5, align 8
  store ptr %1, ptr %6, align 8
  store i32 %2, ptr %7, align 4
  %10 = call zeroext i1 @can_assume_(i32 noundef 2)
  br i1 %10, label %15, label %11

11:                                               ; preds = %3
  %12 = load i32, ptr %7, align 4
  %13 = icmp slt i32 %12, 0
  br i1 %13, label %14, label %15

14:                                               ; preds = %11
  store i32 -3, ptr %4, align 4
  br label %38

15:                                               ; preds = %11, %3
  call void @llvm.lifetime.start.p0(i64 4, ptr %8) #5
  store i32 0, ptr %8, align 4, !annotation !4
  %16 = load ptr, ptr %5, align 8
  %17 = call i32 @fdt_ro_probe_(ptr noundef %16)
  store i32 %17, ptr %8, align 4
  %18 = icmp slt i32 %17, 0
  br i1 %18, label %19, label %21

19:                                               ; preds = %15
  %20 = load i32, ptr %8, align 4
  store i32 %20, ptr %4, align 4
  store i32 1, ptr %9, align 4
  br label %22

21:                                               ; preds = %15
  store i32 0, ptr %9, align 4
  br label %22

22:                                               ; preds = %21, %19
  call void @llvm.lifetime.end.p0(i64 4, ptr %8) #5
  %23 = load i32, ptr %9, align 4
  switch i32 %23, label %40 [
    i32 0, label %24
    i32 1, label %38
  ]

24:                                               ; preds = %22
  %25 = load ptr, ptr %5, align 8
  %26 = getelementptr inbounds nuw %struct.fdt_header, ptr %25, i32 0, i32 1
  %27 = call i32 @fdt32_ld(ptr noundef %26)
  %28 = load i32, ptr %7, align 4
  %29 = icmp ugt i32 %27, %28
  br i1 %29, label %30, label %31

30:                                               ; preds = %24
  store i32 -3, ptr %4, align 4
  br label %38

31:                                               ; preds = %24
  %32 = load ptr, ptr %6, align 8
  %33 = load ptr, ptr %5, align 8
  %34 = load ptr, ptr %5, align 8
  %35 = getelementptr inbounds nuw %struct.fdt_header, ptr %34, i32 0, i32 1
  %36 = call i32 @fdt32_ld(ptr noundef %35)
  %37 = zext i32 %36 to i64
  call void @llvm.memmove.p0.p0.i64(ptr align 1 %32, ptr align 1 %33, i64 %37, i1 false)
  store i32 0, ptr %4, align 4
  br label %38

38:                                               ; preds = %31, %30, %22, %14
  %39 = load i32, ptr %4, align 4
  ret i32 %39

40:                                               ; preds = %22
  unreachable
}