; Function Attrs: mustprogress nofree norecurse nosync nounwind willreturn memory(argmem: readwrite) uwtable
define dso_local range(i32 -19, 1) i32 @fdt_move(ptr noundef readonly %0, ptr noundef writeonly captures(none) %1, i32 noundef %2) local_unnamed_addr #6 {
  %4 = icmp slt i32 %2, 0
  br i1 %4, label %30, label %5

5:                                                ; preds = %3
  %6 = tail call i32 @fdt_ro_probe_(ptr noundef %0)
  %7 = icmp sgt i32 %6, -1
  br i1 %7, label %8, label %30

8:                                                ; preds = %5
  %9 = getelementptr inbounds nuw i8, ptr %0, i64 4
  %10 = load i8, ptr %9, align 1
  %11 = zext i8 %10 to i32
  %12 = shl nuw i32 %11, 24
  %13 = getelementptr inbounds nuw i8, ptr %0, i64 5
  %14 = load i8, ptr %13, align 1
  %15 = zext i8 %14 to i32
  %16 = shl nuw nsw i32 %15, 16
  %17 = or disjoint i32 %16, %12
  %18 = getelementptr inbounds nuw i8, ptr %0, i64 6
  %19 = load i8, ptr %18, align 1
  %20 = zext i8 %19 to i32
  %21 = shl nuw nsw i32 %20, 8
  %22 = or disjoint i32 %17, %21
  %23 = getelementptr inbounds nuw i8, ptr %0, i64 7
  %24 = load i8, ptr %23, align 1
  %25 = zext i8 %24 to i32
  %26 = or disjoint i32 %22, %25
  %27 = icmp ugt i32 %26, %2
  br i1 %27, label %30, label %28

28:                                               ; preds = %8
  %29 = zext nneg i32 %26 to i64
  tail call void @llvm.memmove.p0.p0.i64(ptr align 1 %1, ptr nonnull align 1 %0, i64 %29, i1 false)
  br label %30

30:                                               ; preds = %5, %8, %3, %28
  %.010 = phi i32 [ %6, %5 ], [ 0, %28 ], [ -3, %3 ], [ -3, %8 ]
  ret i32 %.010
}